target datalayout = "e-m:e-p270:32:32-p271:32:32-p272:64:64-i64:64-i128:128-f80:128-n8:16:32:64-S128"
target triple = "x86_64-pc-linux-gnu"

%struct.wg_qqword = type { [32 x i8] }

@proto_register_wg.ett = internal global [3 x ptr] [ptr @ett_wg, ptr @ett_timestamp, ptr @ett_key_info], align 16
@.str.79 = private unnamed_addr constant [19 x i8] c"WireGuard Protocol\00", align 1
@.str.80 = private unnamed_addr constant [10 x i8] c"WireGuard\00", align 1
@.str.81 = private unnamed_addr constant [3 x i8] c"wg\00", align 1
@proto_wg = internal global i32 0, align 4
@wg_handle = internal global ptr null, align 8
@.str.82 = private unnamed_addr constant [22 x i8] c"WireGuard static keys\00", align 1
@.str.83 = private unnamed_addr constant [8 x i8] c"wg_keys\00", align 1
@wg_key_records = internal global ptr null, align 8
@num_wg_key_records = internal global i32 0, align 4
@.str.84 = private unnamed_addr constant [5 x i8] c"keys\00", align 1
@.str.85 = private unnamed_addr constant [95 x i8] c"A table of long-term static keys to enable WireGuard peer identification or partial decryption\00", align 1
@.str.86 = private unnamed_addr constant [15 x i8] c"dissect_packet\00", align 1
@.str.87 = private unnamed_addr constant [23 x i8] c"Dissect transport data\00", align 1
@.str.88 = private unnamed_addr constant [66 x i8] c"Whether the IP dissector should dissect decrypted transport data.\00", align 1
@pref_dissect_packet = internal global i8 1, align 1
@.str.89 = private unnamed_addr constant [12 x i8] c"keylog_file\00", align 1
@.str.90 = private unnamed_addr constant [17 x i8] c"Key log filename\00", align 1
@pref_keylog_file = internal global ptr null, align 8
@wg_decryption_supported = internal global i8 0, align 1
@wg_ephemeral_keys = internal global ptr null, align 8
@sessions = internal global ptr null, align 8
@hash_of_construction = internal global %struct.wg_qqword zeroinitializer, align 1
@hash_of_c_identifier = internal global %struct.wg_qqword zeroinitializer, align 1
@wg_decrypt_init.construction = internal constant [38 x i8] c"Noise_IKpsk2_25519_ChaChaPoly_BLAKE2s\00", align 16
@wg_decrypt_init.wg_identifier = internal constant [35 x i8] c"WireGuard v1 zx2c4 Jason@zx2c4.com\00", align 16

; Function Attrs: alwaysinline nounwind
define internal ptr @memcpy.inline(ptr noalias %0, ptr noalias %1, i64 %2) #11 {
  %4 = alloca ptr, align 8
  %5 = alloca ptr, align 8
  %6 = alloca i64, align 8
  store ptr %0, ptr %4, align 8
  store ptr %1, ptr %5, align 8
  store i64 %2, ptr %6, align 8
  %7 = load ptr, ptr %4, align 8
  %8 = load ptr, ptr %5, align 8
  %9 = load i64, ptr %6, align 8
  %10 = load ptr, ptr %4, align 8
  %11 = call i64 @llvm.objectsize.i64.p0(ptr %10, i1 false, i1 true, i1 true)
  %12 = call ptr @__memcpy_chk(ptr noundef %7, ptr noundef %8, i64 noundef %9, i64 noundef %11) #19
  ret ptr %12
}

; Function Attrs: null_pointer_is_valid sspstrong uwtable
define internal zeroext i1 @wg_decrypt_init() #0 {
  %1 = alloca i1, align 1
  %2 = call i32 @gcry_md_algo_info(i32 noundef 325, i32 noundef 8, ptr noundef null, ptr noundef null)
  %3 = icmp ne i32 %2, 0
  br i1 %3, label %10, label %4

4:                                                ; preds = %0
  %5 = call i32 @gcry_md_algo_info(i32 noundef 322, i32 noundef 8, ptr noundef null, ptr noundef null)
  %6 = icmp ne i32 %5, 0
  br i1 %6, label %10, label %7

7:                                                ; preds = %4
  %8 = call i32 @gcry_cipher_algo_info(i32 noundef 316, i32 noundef 8, ptr noundef null, ptr noundef null)
  %9 = icmp ne i32 %8, 0
  br i1 %9, label %10, label %11

10:                                               ; preds = %7, %4, %0
  store i1 false, ptr %1, align 1
  br label %13

11:                                               ; preds = %7
  call void @gcry_md_hash_buffer(i32 noundef 322, ptr noundef @hash_of_construction, ptr noundef @wg_decrypt_init.construction, i64 noundef 37)
  %12 = call ptr @memcpy.inline(ptr noundef @hash_of_c_identifier, ptr noundef @hash_of_construction, i64 noundef 32) #19
  call void @wg_mix_hash(ptr noundef @hash_of_c_identifier, ptr noundef @wg_decrypt_init.wg_identifier, i64 noundef 34)
  store i1 true, ptr %1, align 1
  br label %13

13:                                               ; preds = %11, %10
  %14 = load i1, ptr %1, align 1
  ret i1 %14
}

; Function Attrs: null_pointer_is_valid sspstrong uwtable
define hidden void @proto_register_wg() #0 {
  %1 = alloca ptr, align 8
  %2 = alloca ptr, align 8
  %3 = alloca ptr, align 8
  call void @llvm.lifetime.start.p0(i64 8, ptr %1) #19
  call void @llvm.lifetime.start.p0(i64 8, ptr %2) #19
  %4 = call i32 @proto_register_protocol(ptr noundef @.str.79, ptr noundef @.str.80, ptr noundef @.str.81)
  store i32 %4, ptr @proto_wg, align 4
  %5 = load i32, ptr @proto_wg, align 4
  call void @proto_register_field_array(i32 noundef %5, ptr noundef @proto_register_wg.hf, i32 noundef 27)
  call void @proto_register_subtree_array(ptr noundef @proto_register_wg.ett, i32 noundef 3)
  %6 = load i32, ptr @proto_wg, align 4
  %7 = call ptr @expert_register_protocol(i32 noundef %6)
  store ptr %7, ptr %2, align 8
  %8 = load ptr, ptr %2, align 8
  call void @expert_register_field_array(ptr noundef %8, ptr noundef @proto_register_wg.ei, i32 noundef 4)
  %9 = load i32, ptr @proto_wg, align 4
  %10 = call ptr @register_dissector(ptr noundef @.str.81, ptr noundef @dissect_wg, i32 noundef %9)
  store ptr %10, ptr @wg_handle, align 8
  %11 = load i32, ptr @proto_wg, align 4
  %12 = call ptr @prefs_register_protocol(i32 noundef %11, ptr noundef null)
  store ptr %12, ptr %1, align 8
  call void @llvm.lifetime.start.p0(i64 8, ptr %3) #19
  %13 = call ptr @uat_new(ptr noundef @.str.82, i64 noundef 16, ptr noundef @.str.83, i1 noundef zeroext true, ptr noundef @wg_key_records, ptr noundef @num_wg_key_records, i32 noundef 1, ptr noundef null, ptr noundef @wg_key_uat_record_copy_cb, ptr noundef @wg_key_uat_record_update_cb, ptr noundef @wg_key_uat_record_free_cb, ptr noundef @wg_key_uat_apply, ptr noundef @wg_key_uat_reset, ptr noundef @proto_register_wg.wg_key_uat_fields)
  store ptr %13, ptr %3, align 8
  %14 = load ptr, ptr %1, align 8
  %15 = load ptr, ptr %3, align 8
  call void @prefs_register_uat_preference(ptr noundef %14, ptr noundef @.str.84, ptr noundef @.str.82, ptr noundef @.str.85, ptr noundef %15)
  %16 = load ptr, ptr %1, align 8
  call void @prefs_register_bool_preference(ptr noundef %16, ptr noundef @.str.86, ptr noundef @.str.87, ptr noundef @.str.88, ptr noundef @pref_dissect_packet)
  %17 = load ptr, ptr %1, align 8
  call void @prefs_register_filename_preference(ptr noundef %17, ptr noundef @.str.89, ptr noundef @.str.90, ptr noundef @.str.91, ptr noundef @pref_keylog_file, i1 noundef zeroext false)
  %18 = call zeroext i1 @wg_decrypt_init()
  %19 = zext i1 %18 to i8
  store i8 %19, ptr @wg_decryption_supported, align 1
  %20 = load i8, ptr @wg_decryption_supported, align 1, !range !6, !noundef !7
  %21 = trunc i8 %20 to i1
  br i1 %21, label %22, label %23

22:                                               ; preds = %0
  call void @secrets_register_type(i32 noundef 1464290124, ptr noundef @wg_keylog_process_lines)
  br label %23

23:                                               ; preds = %22, %0
  %24 = call ptr @wmem_epan_scope()
  %25 = call ptr @wmem_file_scope()
  %26 = call noalias ptr @wmem_map_new_autoreset(ptr noundef %24, ptr noundef %25, ptr noundef @g_int_hash, ptr noundef @wg_pubkey_equal)
  store ptr %26, ptr @wg_ephemeral_keys, align 8
  call void @register_init_routine(ptr noundef @wg_init)
  call void @register_cleanup_routine(ptr noundef @wg_keylog_reset)
  %27 = call ptr @wmem_epan_scope()
  %28 = call ptr @wmem_file_scope()
  %29 = call noalias ptr @wmem_map_new_autoreset(ptr noundef %27, ptr noundef %28, ptr noundef @g_direct_hash, ptr noundef @g_direct_equal)
  store ptr %29, ptr @sessions, align 8
  call void @llvm.lifetime.end.p0(i64 8, ptr %3) #19
  call void @llvm.lifetime.end.p0(i64 8, ptr %2) #19
  call void @llvm.lifetime.end.p0(i64 8, ptr %1) #19
  ret void
}