; Function Attrs: null_pointer_is_valid sspstrong uwtable
define hidden void @proto_register_wg() local_unnamed_addr #0 {
  %1 = tail call i32 @proto_register_protocol(ptr noundef nonnull @.str.79, ptr noundef nonnull @.str.80, ptr noundef nonnull @.str.81)
  store i32 %1, ptr @proto_wg, align 4
  tail call void @proto_register_field_array(i32 noundef %1, ptr noundef nonnull @proto_register_wg.hf, i32 noundef 27)
  tail call void @proto_register_subtree_array(ptr noundef nonnull @proto_register_wg.ett, i32 noundef 3)
  %2 = load i32, ptr @proto_wg, align 4
  %3 = tail call ptr @expert_register_protocol(i32 noundef %2)
  tail call void @expert_register_field_array(ptr noundef %3, ptr noundef nonnull @proto_register_wg.ei, i32 noundef 4)
  %4 = load i32, ptr @proto_wg, align 4
  %5 = tail call ptr @register_dissector(ptr noundef nonnull @.str.81, ptr noundef nonnull @dissect_wg, i32 noundef %4)
  store ptr %5, ptr @wg_handle, align 8
  %6 = load i32, ptr @proto_wg, align 4
  %7 = tail call ptr @prefs_register_protocol(i32 noundef %6, ptr noundef null)
  %8 = tail call ptr @uat_new(ptr noundef nonnull @.str.82, i64 noundef 16, ptr noundef nonnull @.str.83, i1 noundef zeroext true, ptr noundef nonnull @wg_key_records, ptr noundef nonnull @num_wg_key_records, i32 noundef 1, ptr noundef null, ptr noundef nonnull @wg_key_uat_record_copy_cb, ptr noundef nonnull @wg_key_uat_record_update_cb, ptr noundef nonnull @wg_key_uat_record_free_cb, ptr noundef nonnull @wg_key_uat_apply, ptr noundef nonnull @wg_key_uat_reset, ptr noundef nonnull @proto_register_wg.wg_key_uat_fields)
  tail call void @prefs_register_uat_preference(ptr noundef %7, ptr noundef nonnull @.str.84, ptr noundef nonnull @.str.82, ptr noundef nonnull @.str.85, ptr noundef %8)
  tail call void @prefs_register_bool_preference(ptr noundef %7, ptr noundef nonnull @.str.86, ptr noundef nonnull @.str.87, ptr noundef nonnull @.str.88, ptr noundef nonnull @pref_dissect_packet)
  tail call void @prefs_register_filename_preference(ptr noundef %7, ptr noundef nonnull @.str.89, ptr noundef nonnull @.str.90, ptr noundef nonnull @.str.91, ptr noundef nonnull @pref_keylog_file, i1 noundef zeroext false)
  %9 = tail call i32 @gcry_md_algo_info(i32 noundef 325, i32 noundef 8, ptr noundef null, ptr noundef null)
  %.not.i = icmp eq i32 %9, 0
  br i1 %.not.i, label %10, label %wg_decrypt_init.exit.thread

10:                                               ; preds = %0
  %11 = tail call i32 @gcry_md_algo_info(i32 noundef 322, i32 noundef 8, ptr noundef null, ptr noundef null)
  %.not1.i = icmp eq i32 %11, 0
  br i1 %.not1.i, label %12, label %wg_decrypt_init.exit.thread

12:                                               ; preds = %10
  %13 = tail call i32 @gcry_cipher_algo_info(i32 noundef 316, i32 noundef 8, ptr noundef null, ptr noundef null)
  %.not2.i = icmp eq i32 %13, 0
  br i1 %.not2.i, label %14, label %wg_decrypt_init.exit.thread

wg_decrypt_init.exit.thread:                      ; preds = %12, %10, %0
  store i1 false, ptr @wg_decryption_supported, align 1
  br label %15

14:                                               ; preds = %12
  tail call void @gcry_md_hash_buffer(i32 noundef 322, ptr noundef nonnull @hash_of_construction, ptr noundef nonnull @wg_decrypt_init.construction, i64 noundef 37)
  tail call void @llvm.memcpy.p0.p0.i64(ptr noundef nonnull align 1 dereferenceable(32) @hash_of_c_identifier, ptr noundef nonnull align 1 dereferenceable(32) @hash_of_construction, i64 noundef 32, i1 noundef false) #18
  tail call fastcc void @wg_mix_hash(ptr noundef nonnull @hash_of_c_identifier, ptr noundef nonnull @wg_decrypt_init.wg_identifier, i64 noundef 34)
  store i1 true, ptr @wg_decryption_supported, align 1
  tail call void @secrets_register_type(i32 noundef 1464290124, ptr noundef nonnull @wg_keylog_process_lines)
  br label %15

15:                                               ; preds = %wg_decrypt_init.exit.thread, %14
  %16 = tail call ptr @wmem_epan_scope()
  %17 = tail call ptr @wmem_file_scope()
  %18 = tail call noalias ptr @wmem_map_new_autoreset(ptr noundef %16, ptr noundef %17, ptr noundef nonnull @g_int_hash, ptr noundef nonnull @wg_pubkey_equal)
  store ptr %18, ptr @wg_ephemeral_keys, align 8
  tail call void @register_init_routine(ptr noundef nonnull @wg_init)
  tail call void @register_cleanup_routine(ptr noundef nonnull @wg_keylog_reset)
  %19 = tail call ptr @wmem_epan_scope()
  %20 = tail call ptr @wmem_file_scope()
  %21 = tail call noalias ptr @wmem_map_new_autoreset(ptr noundef %19, ptr noundef %20, ptr noundef nonnull @g_direct_hash, ptr noundef nonnull @g_direct_equal)
  store ptr %21, ptr @sessions, align 8
  ret void
}